target datalayout = "e-m:e-p270:32:32-p271:32:32-p272:64:64-i64:64-i128:128-f80:128-n8:16:32:64-S128"
target triple = "x86_64-pc-linux-gnu"

%struct._ct_dissector_info = type { ptr }
%struct._packet_info = type { ptr, ptr, i32, i32, %struct.nstime_t, %struct.nstime_t, %struct.nstime_t, i32, ptr, ptr, ptr, ptr, %struct._address, %struct._address, %struct._address, %struct._address, %struct._address, %struct._address, i32, ptr, i32, %struct.anon, i32, i32, i32, i32, ptr, i32, ptr, ptr, i16, i16, i32, i32, i16, i32, i32, ptr, ptr, ptr, i8, i8, i16, i16, i16, i32, i16, i16, ptr, ptr, ptr, ptr, ptr, i32 }
%struct.nstime_t = type { i64, i32 }
%struct._address = type { i32, i32, ptr, ptr }
%struct.anon = type { i8, [3 x i8] }
%struct._frame_data = type { i32, i32, i32, i32, i64, ptr, ptr, ptr, i16, i16, %struct.nstime_t, %struct.nstime_t, i32, i32, i8 }
%struct._conversation_hash_t = type { ptr, ptr, ptr, i32 }

@bluetooth_ct_dissector_info = internal global %struct._ct_dissector_info { ptr @bluetooth_conv_get_filter_type }, align 8

; Function Attrs: nounwind uwtable
define internal i32 @bluetooth_conversation_packet(ptr noundef %0, ptr noundef %1, ptr noundef %2, ptr noundef %3, i32 noundef %4) #1 {
  %6 = alloca ptr, align 8
  %7 = alloca ptr, align 8
  %8 = alloca ptr, align 8
  %9 = alloca ptr, align 8
  %10 = alloca i32, align 4
  %11 = alloca ptr, align 8
  store ptr %0, ptr %6, align 8
  store ptr %1, ptr %7, align 8
  store ptr %2, ptr %8, align 8
  store ptr %3, ptr %9, align 8
  store i32 %4, ptr %10, align 4
  %12 = load ptr, ptr %6, align 8
  store ptr %12, ptr %11, align 8
  %13 = load i32, ptr %10, align 4
  %14 = load ptr, ptr %11, align 8
  %15 = getelementptr inbounds %struct._conversation_hash_t, ptr %14, i32 0, i32 3
  store i32 %13, ptr %15, align 8
  %16 = load ptr, ptr %11, align 8
  %17 = load ptr, ptr %7, align 8
  %18 = getelementptr inbounds %struct._packet_info, ptr %17, i32 0, i32 12
  %19 = load ptr, ptr %7, align 8
  %20 = getelementptr inbounds %struct._packet_info, ptr %19, i32 0, i32 13
  %21 = load ptr, ptr %7, align 8
  %22 = getelementptr inbounds %struct._packet_info, ptr %21, i32 0, i32 8
  %23 = load ptr, ptr %22, align 8
  %24 = getelementptr inbounds %struct._frame_data, ptr %23, i32 0, i32 1
  %25 = load i32, ptr %24, align 4
  %26 = load ptr, ptr %7, align 8
  %27 = getelementptr inbounds %struct._packet_info, ptr %26, i32 0, i32 5
  %28 = load ptr, ptr %7, align 8
  %29 = getelementptr inbounds %struct._packet_info, ptr %28, i32 0, i32 4
  call void @add_conversation_table_data(ptr noundef %16, ptr noundef %18, ptr noundef %20, i32 noundef 0, i32 noundef 0, i32 noundef 1, i32 noundef %25, ptr noundef %27, ptr noundef %29, ptr noundef @bluetooth_ct_dissector_info, i32 noundef 0)
  ret i32 1
}