; Function Attrs: nounwind uwtable
define internal noundef i32 @bluetooth_conversation_packet(ptr noundef initializes((24, 28)) %0, ptr noundef %1, ptr readnone captures(none) %2, ptr readnone captures(none) %3, i32 noundef %4) #1 {
  %6 = getelementptr inbounds nuw i8, ptr %0, i64 24
  store i32 %4, ptr %6, align 8
  %7 = getelementptr inbounds nuw i8, ptr %1, i64 112
  %8 = getelementptr inbounds nuw i8, ptr %1, i64 136
  %9 = getelementptr inbounds nuw i8, ptr %1, i64 80
  %10 = load ptr, ptr %9, align 8
  %11 = getelementptr inbounds nuw i8, ptr %10, i64 4
  %12 = load i32, ptr %11, align 4
  %13 = getelementptr inbounds nuw i8, ptr %1, i64 40
  %14 = getelementptr inbounds nuw i8, ptr %1, i64 24
  tail call void @add_conversation_table_data(ptr noundef %0, ptr noundef nonnull %7, ptr noundef nonnull %8, i32 noundef 0, i32 noundef 0, i32 noundef 1, i32 noundef %12, ptr noundef nonnull %13, ptr noundef nonnull %14, ptr noundef nonnull @bluetooth_ct_dissector_info, i32 noundef 0) #9
  ret i32 1
}